target datalayout = "e-m:e-p270:32:32-p271:32:32-p272:64:64-i64:64-i128:128-f80:128-n8:16:32:64-S128"
target triple = "x86_64-pc-linux-gnu"

%"class.cv::SparseMatConstIterator" = type { ptr, i64, ptr }
%"class.cv::SparseMat" = type { i32, ptr }
%"struct.cv::SparseMat::Hdr" = type { i32, i32, i32, i64, i64, i64, %"class.std::vector", %"class.std::vector.3", [32 x i32] }
%"class.std::vector" = type { %"struct.std::_Vector_base" }
%"struct.std::_Vector_base" = type { %"struct.std::_Vector_base<unsigned char, std::allocator<unsigned char>>::_Vector_impl" }
%"struct.std::_Vector_base<unsigned char, std::allocator<unsigned char>>::_Vector_impl" = type { %"struct.std::_Vector_base<unsigned char, std::allocator<unsigned char>>::_Vector_impl_data" }
%"struct.std::_Vector_base<unsigned char, std::allocator<unsigned char>>::_Vector_impl_data" = type { ptr, ptr, ptr }
%"class.std::vector.3" = type { %"struct.std::_Vector_base.4" }
%"struct.std::_Vector_base.4" = type { %"struct.std::_Vector_base<unsigned long, std::allocator<unsigned long>>::_Vector_impl" }
%"struct.std::_Vector_base<unsigned long, std::allocator<unsigned long>>::_Vector_impl" = type { %"struct.std::_Vector_base<unsigned long, std::allocator<unsigned long>>::_Vector_impl_data" }
%"struct.std::_Vector_base<unsigned long, std::allocator<unsigned long>>::_Vector_impl_data" = type { ptr, ptr, ptr }
%"struct.cv::SparseMat::Node" = type { i64, i64, [32 x i32] }

; Function Attrs: mustprogress nounwind uwtable
define linkonce_odr hidden noundef nonnull align 8 dereferenceable(8) ptr @_ZNSt6vectorImSaImEEixEm(ptr noundef nonnull align 8 dereferenceable(24) %0, i64 noundef %1) #0 comdat align 2 {
  %3 = alloca ptr, align 8
  %4 = alloca i64, align 8
  store ptr %0, ptr %3, align 8, !tbaa !100
  store i64 %1, ptr %4, align 8, !tbaa !41
  %5 = load ptr, ptr %3, align 8
  %6 = getelementptr inbounds nuw %"struct.std::_Vector_base.4", ptr %5, i32 0, i32 0
  %7 = getelementptr inbounds nuw %"struct.std::_Vector_base<unsigned long, std::allocator<unsigned long>>::_Vector_impl_data", ptr %6, i32 0, i32 0
  %8 = load ptr, ptr %7, align 8, !tbaa !114
  %9 = load i64, ptr %4, align 8, !tbaa !41
  %10 = getelementptr inbounds nuw i64, ptr %8, i64 %9
  ret ptr %10
}

; Function Attrs: mustprogress nounwind uwtable
define linkonce_odr hidden noundef i64 @_ZNKSt6vectorImSaImEE4sizeEv(ptr noundef nonnull align 8 dereferenceable(24) %0) #0 comdat align 2 {
  %2 = alloca ptr, align 8
  store ptr %0, ptr %2, align 8, !tbaa !100
  %3 = load ptr, ptr %2, align 8
  %4 = getelementptr inbounds nuw %"struct.std::_Vector_base.4", ptr %3, i32 0, i32 0
  %5 = getelementptr inbounds nuw %"struct.std::_Vector_base<unsigned long, std::allocator<unsigned long>>::_Vector_impl_data", ptr %4, i32 0, i32 1
  %6 = load ptr, ptr %5, align 8, !tbaa !113
  %7 = getelementptr inbounds nuw %"struct.std::_Vector_base.4", ptr %3, i32 0, i32 0
  %8 = getelementptr inbounds nuw %"struct.std::_Vector_base<unsigned long, std::allocator<unsigned long>>::_Vector_impl_data", ptr %7, i32 0, i32 0
  %9 = load ptr, ptr %8, align 8, !tbaa !114
  %10 = ptrtoint ptr %6 to i64
  %11 = ptrtoint ptr %9 to i64
  %12 = sub i64 %10, %11
  %13 = sdiv exact i64 %12, 8
  ret i64 %13
}

; Function Attrs: mustprogress nounwind uwtable
define linkonce_odr hidden noundef nonnull align 1 dereferenceable(1) ptr @_ZNSt6vectorIhSaIhEEixEm(ptr noundef nonnull align 8 dereferenceable(24) %0, i64 noundef %1) #0 comdat align 2 {
  %3 = alloca ptr, align 8
  %4 = alloca i64, align 8
  store ptr %0, ptr %3, align 8, !tbaa !115
  store i64 %1, ptr %4, align 8, !tbaa !41
  %5 = load ptr, ptr %3, align 8
  %6 = getelementptr inbounds nuw %"struct.std::_Vector_base", ptr %5, i32 0, i32 0
  %7 = getelementptr inbounds nuw %"struct.std::_Vector_base<unsigned char, std::allocator<unsigned char>>::_Vector_impl_data", ptr %6, i32 0, i32 0
  %8 = load ptr, ptr %7, align 8, !tbaa !117
  %9 = load i64, ptr %4, align 8, !tbaa !41
  %10 = getelementptr inbounds nuw i8, ptr %8, i64 %9
  ret ptr %10
}

; Function Attrs: mustprogress nounwind uwtable
define noundef nonnull align 8 dereferenceable(24) ptr @_ZN2cv22SparseMatConstIteratorppEv(ptr noundef nonnull align 8 dereferenceable(24) %0) #0 align 2 {
  %2 = alloca ptr, align 8
  %3 = alloca ptr, align 8
  %4 = alloca ptr, align 8
  %5 = alloca i64, align 8
  %6 = alloca i32, align 4
  %7 = alloca i64, align 8
  %8 = alloca i64, align 8
  %9 = alloca i64, align 8
  store ptr %0, ptr %3, align 8, !tbaa !88
  %10 = load ptr, ptr %3, align 8
  %11 = getelementptr inbounds nuw %"class.cv::SparseMatConstIterator", ptr %10, i32 0, i32 2
  %12 = load ptr, ptr %11, align 8, !tbaa !95
  %13 = icmp ne ptr %12, null
  br i1 %13, label %14, label %24

14:                                               ; preds = %1
  %15 = getelementptr inbounds nuw %"class.cv::SparseMatConstIterator", ptr %10, i32 0, i32 0
  %16 = load ptr, ptr %15, align 8, !tbaa !92
  %17 = icmp ne ptr %16, null
  br i1 %17, label %18, label %24

18:                                               ; preds = %14
  %19 = getelementptr inbounds nuw %"class.cv::SparseMatConstIterator", ptr %10, i32 0, i32 0
  %20 = load ptr, ptr %19, align 8, !tbaa !92
  %21 = getelementptr inbounds nuw %"class.cv::SparseMat", ptr %20, i32 0, i32 1
  %22 = load ptr, ptr %21, align 8, !tbaa !96
  %23 = icmp ne ptr %22, null
  br i1 %23, label %25, label %24

24:                                               ; preds = %18, %14, %1
  store ptr %10, ptr %2, align 8
  br label %98

25:                                               ; preds = %18
  call void @llvm.lifetime.start.p0(i64 8, ptr %4) #12
  %26 = getelementptr inbounds nuw %"class.cv::SparseMatConstIterator", ptr %10, i32 0, i32 0
  %27 = load ptr, ptr %26, align 8, !tbaa !92
  %28 = getelementptr inbounds nuw %"class.cv::SparseMat", ptr %27, i32 0, i32 1
  %29 = load ptr, ptr %28, align 8, !tbaa !96
  store ptr %29, ptr %4, align 8, !tbaa !99
  call void @llvm.lifetime.start.p0(i64 8, ptr %5) #12
  %30 = getelementptr inbounds nuw %"class.cv::SparseMatConstIterator", ptr %10, i32 0, i32 2
  %31 = load ptr, ptr %30, align 8, !tbaa !95
  %32 = load ptr, ptr %4, align 8, !tbaa !99
  %33 = getelementptr inbounds nuw %"struct.cv::SparseMat::Hdr", ptr %32, i32 0, i32 2
  %34 = load i32, ptr %33, align 8, !tbaa !102
  %35 = sext i32 %34 to i64
  %36 = sub i64 0, %35
  %37 = getelementptr inbounds i8, ptr %31, i64 %36
  %38 = getelementptr inbounds nuw %"struct.cv::SparseMat::Node", ptr %37, i32 0, i32 1
  %39 = load i64, ptr %38, align 8, !tbaa !118
  store i64 %39, ptr %5, align 8, !tbaa !41
  %40 = load i64, ptr %5, align 8, !tbaa !41
  %41 = icmp ne i64 %40, 0
  br i1 %41, label %42, label %53

42:                                               ; preds = %25
  %43 = load ptr, ptr %4, align 8, !tbaa !99
  %44 = getelementptr inbounds nuw %"struct.cv::SparseMat::Hdr", ptr %43, i32 0, i32 6
  %45 = load i64, ptr %5, align 8, !tbaa !41
  %46 = call noundef nonnull align 1 dereferenceable(1) ptr @_ZNSt6vectorIhSaIhEEixEm(ptr noundef nonnull align 8 dereferenceable(24) %44, i64 noundef %45) #12
  %47 = load ptr, ptr %4, align 8, !tbaa !99
  %48 = getelementptr inbounds nuw %"struct.cv::SparseMat::Hdr", ptr %47, i32 0, i32 2
  %49 = load i32, ptr %48, align 8, !tbaa !102
  %50 = sext i32 %49 to i64
  %51 = getelementptr inbounds i8, ptr %46, i64 %50
  %52 = getelementptr inbounds nuw %"class.cv::SparseMatConstIterator", ptr %10, i32 0, i32 2
  store ptr %51, ptr %52, align 8, !tbaa !95
  store ptr %10, ptr %2, align 8
  store i32 1, ptr %6, align 4
  br label %97

53:                                               ; preds = %25
  call void @llvm.lifetime.start.p0(i64 8, ptr %7) #12
  %54 = getelementptr inbounds nuw %"class.cv::SparseMatConstIterator", ptr %10, i32 0, i32 1
  %55 = load i64, ptr %54, align 8, !tbaa !94
  %56 = add i64 %55, 1
  store i64 %56, ptr %7, align 8, !tbaa !41
  call void @llvm.lifetime.start.p0(i64 8, ptr %8) #12
  %57 = load ptr, ptr %4, align 8, !tbaa !99
  %58 = getelementptr inbounds nuw %"struct.cv::SparseMat::Hdr", ptr %57, i32 0, i32 7
  %59 = call noundef i64 @_ZNKSt6vectorImSaImEE4sizeEv(ptr noundef nonnull align 8 dereferenceable(24) %58) #12
  store i64 %59, ptr %8, align 8, !tbaa !41
  br label %60

60:                                               ; preds = %89, %53
  %61 = load i64, ptr %7, align 8, !tbaa !41
  %62 = load i64, ptr %8, align 8, !tbaa !41
  %63 = icmp ult i64 %61, %62
  br i1 %63, label %64, label %92

64:                                               ; preds = %60
  call void @llvm.lifetime.start.p0(i64 8, ptr %9) #12
  %65 = load ptr, ptr %4, align 8, !tbaa !99
  %66 = getelementptr inbounds nuw %"struct.cv::SparseMat::Hdr", ptr %65, i32 0, i32 7
  %67 = load i64, ptr %7, align 8, !tbaa !41
  %68 = call noundef nonnull align 8 dereferenceable(8) ptr @_ZNSt6vectorImSaImEEixEm(ptr noundef nonnull align 8 dereferenceable(24) %66, i64 noundef %67) #12
  %69 = load i64, ptr %68, align 8, !tbaa !41
  store i64 %69, ptr %9, align 8, !tbaa !41
  %70 = load i64, ptr %9, align 8, !tbaa !41
  %71 = icmp ne i64 %70, 0
  br i1 %71, label %72, label %85

72:                                               ; preds = %64
  %73 = load i64, ptr %7, align 8, !tbaa !41
  %74 = getelementptr inbounds nuw %"class.cv::SparseMatConstIterator", ptr %10, i32 0, i32 1
  store i64 %73, ptr %74, align 8, !tbaa !94
  %75 = load ptr, ptr %4, align 8, !tbaa !99
  %76 = getelementptr inbounds nuw %"struct.cv::SparseMat::Hdr", ptr %75, i32 0, i32 6
  %77 = load i64, ptr %9, align 8, !tbaa !41
  %78 = call noundef nonnull align 1 dereferenceable(1) ptr @_ZNSt6vectorIhSaIhEEixEm(ptr noundef nonnull align 8 dereferenceable(24) %76, i64 noundef %77) #12
  %79 = load ptr, ptr %4, align 8, !tbaa !99
  %80 = getelementptr inbounds nuw %"struct.cv::SparseMat::Hdr", ptr %79, i32 0, i32 2
  %81 = load i32, ptr %80, align 8, !tbaa !102
  %82 = sext i32 %81 to i64
  %83 = getelementptr inbounds i8, ptr %78, i64 %82
  %84 = getelementptr inbounds nuw %"class.cv::SparseMatConstIterator", ptr %10, i32 0, i32 2
  store ptr %83, ptr %84, align 8, !tbaa !95
  store ptr %10, ptr %2, align 8
  store i32 1, ptr %6, align 4
  br label %86

85:                                               ; preds = %64
  store i32 0, ptr %6, align 4
  br label %86

86:                                               ; preds = %85, %72
  call void @llvm.lifetime.end.p0(i64 8, ptr %9) #12
  %87 = load i32, ptr %6, align 4
  switch i32 %87, label %96 [
    i32 0, label %88
  ]

88:                                               ; preds = %86
  br label %89

89:                                               ; preds = %88
  %90 = load i64, ptr %7, align 8, !tbaa !41
  %91 = add i64 %90, 1
  store i64 %91, ptr %7, align 8, !tbaa !41
  br label %60, !llvm.loop !120

92:                                               ; preds = %60
  %93 = load i64, ptr %8, align 8, !tbaa !41
  %94 = getelementptr inbounds nuw %"class.cv::SparseMatConstIterator", ptr %10, i32 0, i32 1
  store i64 %93, ptr %94, align 8, !tbaa !94
  %95 = getelementptr inbounds nuw %"class.cv::SparseMatConstIterator", ptr %10, i32 0, i32 2
  store ptr null, ptr %95, align 8, !tbaa !95
  store ptr %10, ptr %2, align 8
  store i32 1, ptr %6, align 4
  br label %96

96:                                               ; preds = %92, %86
  call void @llvm.lifetime.end.p0(i64 8, ptr %8) #12
  call void @llvm.lifetime.end.p0(i64 8, ptr %7) #12
  br label %97

97:                                               ; preds = %96, %42
  call void @llvm.lifetime.end.p0(i64 8, ptr %5) #12
  call void @llvm.lifetime.end.p0(i64 8, ptr %4) #12
  br label %98

98:                                               ; preds = %97, %24
  %99 = load ptr, ptr %2, align 8
  ret ptr %99
}