; Function Attrs: mustprogress nofree norecurse nosync nounwind memory(read, argmem: readwrite, inaccessiblemem: none) uwtable
define noundef nonnull align 8 dereferenceable(24) ptr @_ZN2cv22SparseMatConstIteratorppEv(ptr noundef nonnull returned align 8 dereferenceable(24) %0) local_unnamed_addr #9 align 2 {
  %2 = getelementptr inbounds nuw i8, ptr %0, i64 16
  %3 = load ptr, ptr %2, align 8, !tbaa !90
  %.not = icmp eq ptr %3, null
  br i1 %.not, label %43, label %4

4:                                                ; preds = %1
  %5 = load ptr, ptr %0, align 8, !tbaa !70
  %.not27 = icmp eq ptr %5, null
  br i1 %.not27, label %43, label %6

6:                                                ; preds = %4
  %7 = getelementptr inbounds nuw i8, ptr %5, i64 8
  %8 = load ptr, ptr %7, align 8, !tbaa !73
  %.not28 = icmp eq ptr %8, null
  br i1 %.not28, label %43, label %9

9:                                                ; preds = %6
  %10 = getelementptr inbounds nuw i8, ptr %8, i64 8
  %11 = load i32, ptr %10, align 8, !tbaa !82
  %12 = sext i32 %11 to i64
  %13 = sub nsw i64 0, %12
  %14 = getelementptr inbounds i8, ptr %3, i64 %13
  %15 = getelementptr inbounds nuw i8, ptr %14, i64 8
  %16 = load i64, ptr %15, align 8, !tbaa !92
  %.not29 = icmp eq i64 %16, 0
  br i1 %.not29, label %22, label %17

17:                                               ; preds = %9
  %18 = getelementptr inbounds nuw i8, ptr %8, i64 40
  %19 = load ptr, ptr %18, align 8, !tbaa !80
  %20 = getelementptr inbounds nuw i8, ptr %19, i64 %16
  %21 = getelementptr inbounds i8, ptr %20, i64 %12
  br label %.sink.split

22:                                               ; preds = %9
  %23 = getelementptr inbounds nuw i8, ptr %0, i64 8
  %24 = load i64, ptr %23, align 8, !tbaa !79
  %25 = getelementptr inbounds nuw i8, ptr %8, i64 64
  %26 = getelementptr inbounds nuw i8, ptr %8, i64 72
  %27 = load ptr, ptr %26, align 8, !tbaa !76
  %28 = load ptr, ptr %25, align 8, !tbaa !78
  %29 = ptrtoint ptr %27 to i64
  %30 = ptrtoint ptr %28 to i64
  %31 = sub i64 %29, %30
  %32 = ashr exact i64 %31, 3
  br label %33

33:                                               ; preds = %35, %22
  %.020.in = phi i64 [ %24, %22 ], [ %.020, %35 ]
  %.020 = add i64 %.020.in, 1
  %34 = icmp ult i64 %.020, %32
  br i1 %34, label %35, label %42

35:                                               ; preds = %33
  %36 = getelementptr inbounds nuw i64, ptr %28, i64 %.020
  %37 = load i64, ptr %36, align 8, !tbaa !42
  %.not30 = icmp eq i64 %37, 0
  br i1 %.not30, label %33, label %.thread, !llvm.loop !94

.thread:                                          ; preds = %35
  store i64 %.020, ptr %23, align 8, !tbaa !79
  %38 = getelementptr inbounds nuw i8, ptr %8, i64 40
  %39 = load ptr, ptr %38, align 8, !tbaa !80
  %40 = getelementptr inbounds nuw i8, ptr %39, i64 %37
  %41 = getelementptr inbounds i8, ptr %40, i64 %12
  br label %.sink.split

42:                                               ; preds = %33
  store i64 %32, ptr %23, align 8, !tbaa !79
  br label %.sink.split

.sink.split:                                      ; preds = %42, %17, %.thread
  %.sink = phi ptr [ %41, %.thread ], [ %21, %17 ], [ null, %42 ]
  store ptr %.sink, ptr %2, align 8, !tbaa !90
  br label %43

43:                                               ; preds = %.sink.split, %1, %4, %6
  ret ptr %0
}